Certificate:
    Data:
        Version: 3 (0x2)
        Serial Number:
            d2:0a:4c:8b:f7:0f:d7:a1:77:b8:89:17:3b:35:4d:f2
        Signature Algorithm: sha256WithRSAEncryption
        Issuer: CN=RASVPN
        Validity
            Not Before: May  6 19:08:28 2024 GMT
            Not After : Aug  9 19:08:28 2026 GMT
        Subject: CN=RASVPN
        Subject Public Key Info:
            Public Key Algorithm: rsaEncryption
                Public-Key: (2048 bit)
                Modulus:
                    00:ad:51:1c:8b:f1:78:ad:c1:91:a8:3f:2b:53:44:
                    fd:f4:47:a9:a3:69:7f:59:ce:01:32:8d:96:8b:7d:
                    c9:2b:1b:be:79:ed:0e:6e:a7:86:6a:6b:d5:23:51:
                    12:e5:f7:a9:5c:27:24:98:da:d5:13:56:7f:50:84:
                    87:cc:1d:ff:07:c3:16:79:02:9a:7d:72:29:fa:78:
                    b2:4e:2a:a6:19:e2:26:92:26:b0:98:d3:51:b1:ff:
                    47:5e:62:04:c5:4f:a1:31:e2:e4:8b:e8:21:8c:9c:
                    c3:4c:07:0f:47:53:7d:dc:78:b5:e1:f4:f1:a4:c3:
                    fa:4e:c9:f8:bf:bc:39:e3:98:20:42:01:ee:a2:a9:
                    cb:6f:b2:a6:1d:42:cb:3d:86:5d:c0:7e:b9:5b:72:
                    76:32:b2:21:59:0e:47:7e:be:fe:8e:e0:82:ba:7e:
                    7b:c1:8a:19:f1:90:e7:d8:4f:e6:2f:63:4e:08:51:
                    fe:1a:98:f1:62:33:59:20:72:32:4c:65:ca:37:e7:
                    84:7a:14:cd:fd:8a:03:ee:43:61:55:40:ce:ba:56:
                    69:de:65:7a:79:60:44:23:83:ec:28:33:95:94:e6:
                    65:74:0f:f6:8b:ea:f1:bb:5e:56:8a:4a:fa:a6:1a:
                    f7:09:1b:54:b3:d2:b0:a1:06:11:dd:a6:36:48:95:
                    92:55
                Exponent: 65537 (0x10001)
        X509v3 extensions:
            X509v3 Basic Constraints: 
                CA:FALSE
            X509v3 Subject Key Identifier: 
                CE:C4:64:D3:D5:09:5D:55:42:03:AA:57:9E:A6:AB:D0:90:EA:45:60
            X509v3 Authority Key Identifier: 
                keyid:91:E5:AD:4B:11:90:47:26:51:BC:59:EC:5B:9E:EC:1D:E2:72:41:4D
                DirName:/CN=RASVPN
                serial:1E:35:FE:81:D6:AD:8D:97:56:AE:2C:FA:05:20:F1:8B:7B:7D:E0:9C
            X509v3 Extended Key Usage: 
                TLS Web Client Authentication
            X509v3 Key Usage: 
                Digital Signature
    Signature Algorithm: sha256WithRSAEncryption
    Signature Value:
        bf:d1:1a:d0:fd:36:0c:fc:07:e6:31:b0:c2:27:d2:cb:5a:7f:
        6f:aa:c1:5a:9f:72:f5:fa:2a:c8:8c:18:38:e4:e2:86:e8:13:
        fd:ba:1e:d4:77:06:eb:8b:35:7f:05:99:2d:8c:78:dc:82:66:
        22:d0:42:07:c1:fe:10:dd:87:fc:2f:7c:5e:f4:fb:14:17:65:
        dc:e0:f0:a9:9f:4f:3f:f0:59:e2:9d:28:87:f4:ee:92:bb:fc:
        a1:d1:22:dd:d5:3c:dd:d0:70:cc:3f:33:92:ec:6f:15:71:1a:
        0d:d3:d4:56:4c:95:c4:de:8c:ee:f6:d0:5e:15:c9:ad:92:92:
        33:c8:66:8b:4a:0e:99:3d:d3:3c:8c:48:30:7b:d2:7d:5d:52:
        26:9b:c1:2d:57:cd:a4:28:8c:b9:a3:72:3f:1c:f5:a4:dc:af:
        48:72:65:ff:62:4a:d1:73:e8:13:d5:3c:fe:f7:05:a0:06:5d:
        29:f5:e3:48:2e:f2:0d:d8:0f:00:2d:17:cc:db:8e:2b:88:ea:
        01:f0:f8:22:7a:e4:8e:21:fa:0e:50:01:de:3b:a0:73:34:c0:
        f3:99:b4:c8:62:d9:ab:95:09:6a:41:44:6e:83:7f:5b:6e:1e:
        11:c1:b6:ae:c1:94:de:ba:04:8e:62:6d:32:21:12:54:33:ec:
        8f:cd:fe:61
-----BEGIN CERTIFICATE-----
MIIDSzCCAjOgAwIBAgIRANIKTIv3D9ehd7iJFzs1TfIwDQYJKoZIhvcNAQELBQAw
ETEPMA0GA1UEAwwGUkFTVlBOMB4XDTI0MDUwNjE5MDgyOFoXDTI2MDgwOTE5MDgy
OFowETEPMA0GA1UEAwwGUkFTVlBOMIIBIjANBgkqhkiG9w0BAQEFAAOCAQ8AMIIB
CgKCAQEArVEci/F4rcGRqD8rU0T99Eepo2l/Wc4BMo2Wi33JKxu+ee0ObqeGamvV
I1ES5fepXCckmNrVE1Z/UISHzB3/B8MWeQKafXIp+niyTiqmGeImkiawmNNRsf9H
XmIExU+hMeLki+ghjJzDTAcPR1N93Hi14fTxpMP6Tsn4v7w545ggQgHuoqnLb7Km
HULLPYZdwH65W3J2MrIhWQ5Hfr7+juCCun57wYoZ8ZDn2E/mL2NOCFH+GpjxYjNZ
IHIyTGXKN+eEehTN/YoD7kNhVUDOulZp3mV6eWBEI4PsKDOVlOZldA/2i+rxu15W
ikr6phr3CRtUs9KwoQYR3aY2SJWSVQIDAQABo4GdMIGaMAkGA1UdEwQCMAAwHQYD
VR0OBBYEFM7EZNPVCV1VQgOqV56mq9CQ6kVgMEwGA1UdIwRFMEOAFJHlrUsRkEcm
UbxZ7Fue7B3ickFNoRWkEzARMQ8wDQYDVQQDDAZSQVNWUE6CFB41/oHWrY2XVq4s
+gUg8Yt7feCcMBMGA1UdJQQMMAoGCCsGAQUFBwMCMAsGA1UdDwQEAwIHgDANBgkq
hkiG9w0BAQsFAAOCAQEAv9Ea0P02DPwH5jGwwifSy1p/b6rBWp9y9foqyIwYOOTi
hugT/boe1HcG64s1fwWZLYx43IJmItBCB8H+EN2H/C98XvT7FBdl3ODwqZ9PP/BZ
4p0oh/Tukrv8odEi3dU83dBwzD8zkuxvFXEaDdPUVkyVxN6M7vbQXhXJrZKSM8hm
i0oOmT3TPIxIMHvSfV1SJpvBLVfNpCiMuaNyPxz1pNyvSHJl/2JK0XPoE9U8/vcF
oAZdKfXjSC7yDdgPAC0XzNuOK4jqAfD4InrkjiH6DlAB3jugczTA85m0yGLZq5UJ
akFEboN/W24eEcG2rsGU3roEjmJtMiESVDPsj83+YQ==
-----END CERTIFICATE-----
